target datalayout = "e-m:e-p270:32:32-p271:32:32-p272:64:64-i64:64-i128:128-f80:128-n8:16:32:64-S128"
target triple = "x86_64-pc-linux-gnu"

%struct.type_and_structure_st = type { ptr, ptr }
%struct.evp_pkey_st = type { i32, i32, ptr, ptr, ptr, %union.legacy_pkey_st, %union.legacy_pkey_st, %struct.CRYPTO_REF_COUNT, ptr, ptr, i32, i8, %struct.crypto_ex_data_st, ptr, ptr, i64, ptr, i64, %struct.anon }
%union.legacy_pkey_st = type { ptr }
%struct.CRYPTO_REF_COUNT = type { i32 }
%struct.crypto_ex_data_st = type { ptr, ptr }
%struct.anon = type { i32, i32, i32 }
%struct.evp_pkey_asn1_method_st = type { i32, i32, i64, ptr, ptr, ptr, ptr, ptr, ptr, ptr, ptr, ptr, ptr, ptr, ptr, ptr, ptr, ptr, ptr, ptr, ptr, ptr, ptr, ptr, ptr, ptr, ptr, ptr, ptr, ptr, ptr, ptr, ptr, ptr, ptr, ptr, ptr, ptr, ptr, ptr, ptr }

@i2d_KeyParams.output_info = internal constant [2 x %struct.type_and_structure_st] [%struct.type_and_structure_st { ptr @.str, ptr @.str.1 }, %struct.type_and_structure_st zeroinitializer], align 16
@.str.2 = private unnamed_addr constant [33 x i8] c"../openssl/crypto/asn1/i2d_evp.c\00", align 1
@__func__.i2d_KeyParams = private unnamed_addr constant [14 x i8] c"i2d_KeyParams\00", align 1

; Function Attrs: nounwind uwtable
define i32 @i2d_KeyParams(ptr noundef %0, ptr noundef %1) #0 {
  %3 = alloca i32, align 4
  %4 = alloca ptr, align 8
  %5 = alloca ptr, align 8
  store ptr %0, ptr %4, align 8, !tbaa !3
  store ptr %1, ptr %5, align 8, !tbaa !8
  %6 = load ptr, ptr %4, align 8, !tbaa !3
  %7 = getelementptr inbounds nuw %struct.evp_pkey_st, ptr %6, i32 0, i32 13
  %8 = load ptr, ptr %7, align 8, !tbaa !10
  %9 = icmp ne ptr %8, null
  br i1 %9, label %10, label %14

10:                                               ; preds = %2
  %11 = load ptr, ptr %4, align 8, !tbaa !3
  %12 = load ptr, ptr %5, align 8, !tbaa !8
  %13 = call i32 @i2d_provided(ptr noundef %11, i32 noundef 132, ptr noundef @i2d_KeyParams.output_info, ptr noundef %12)
  store i32 %13, ptr %3, align 4
  br label %36

14:                                               ; preds = %2
  %15 = load ptr, ptr %4, align 8, !tbaa !3
  %16 = getelementptr inbounds nuw %struct.evp_pkey_st, ptr %15, i32 0, i32 2
  %17 = load ptr, ptr %16, align 8, !tbaa !24
  %18 = icmp ne ptr %17, null
  br i1 %18, label %19, label %35

19:                                               ; preds = %14
  %20 = load ptr, ptr %4, align 8, !tbaa !3
  %21 = getelementptr inbounds nuw %struct.evp_pkey_st, ptr %20, i32 0, i32 2
  %22 = load ptr, ptr %21, align 8, !tbaa !24
  %23 = getelementptr inbounds nuw %struct.evp_pkey_asn1_method_st, ptr %22, i32 0, i32 16
  %24 = load ptr, ptr %23, align 8, !tbaa !25
  %25 = icmp ne ptr %24, null
  br i1 %25, label %26, label %35

26:                                               ; preds = %19
  %27 = load ptr, ptr %4, align 8, !tbaa !3
  %28 = getelementptr inbounds nuw %struct.evp_pkey_st, ptr %27, i32 0, i32 2
  %29 = load ptr, ptr %28, align 8, !tbaa !24
  %30 = getelementptr inbounds nuw %struct.evp_pkey_asn1_method_st, ptr %29, i32 0, i32 16
  %31 = load ptr, ptr %30, align 8, !tbaa !25
  %32 = load ptr, ptr %4, align 8, !tbaa !3
  %33 = load ptr, ptr %5, align 8, !tbaa !8
  %34 = call i32 %31(ptr noundef %32, ptr noundef %33)
  store i32 %34, ptr %3, align 4
  br label %36

35:                                               ; preds = %19, %14
  call void @ERR_new()
  call void @ERR_set_debug(ptr noundef @.str.2, i32 noundef 85, ptr noundef @__func__.i2d_KeyParams)
  call void (i32, i32, ptr, ...) @ERR_set_error(i32 noundef 13, i32 noundef 196, ptr noundef null)
  store i32 -1, ptr %3, align 4
  br label %36

36:                                               ; preds = %35, %26, %10
  %37 = load i32, ptr %3, align 4
  ret i32 %37
}