; Function Attrs: nounwind uwtable
define i32 @i2d_KeyParams(ptr noundef %0, ptr noundef %1) #0 {
  %3 = getelementptr inbounds nuw i8, ptr %0, i64 96
  %4 = load ptr, ptr %3, align 8, !tbaa !3
  %.not = icmp eq ptr %4, null
  br i1 %.not, label %7, label %5

5:                                                ; preds = %2
  %6 = tail call fastcc i32 @i2d_provided(ptr noundef nonnull %0, i32 noundef 132, ptr noundef nonnull @i2d_KeyParams.output_info, ptr noundef %1)
  br label %16

7:                                                ; preds = %2
  %8 = getelementptr inbounds nuw i8, ptr %0, i64 8
  %9 = load ptr, ptr %8, align 8, !tbaa !20
  %.not10 = icmp eq ptr %9, null
  br i1 %.not10, label %15, label %10

10:                                               ; preds = %7
  %11 = getelementptr inbounds nuw i8, ptr %9, i64 120
  %12 = load ptr, ptr %11, align 8, !tbaa !21
  %.not11 = icmp eq ptr %12, null
  br i1 %.not11, label %15, label %13

13:                                               ; preds = %10
  %14 = tail call i32 %12(ptr noundef nonnull %0, ptr noundef %1) #3
  br label %16

15:                                               ; preds = %10, %7
  tail call void @ERR_new() #3
  tail call void @ERR_set_debug(ptr noundef nonnull @.str.2, i32 noundef 85, ptr noundef nonnull @__func__.i2d_KeyParams) #3
  tail call void (i32, i32, ptr, ...) @ERR_set_error(i32 noundef 13, i32 noundef 196, ptr noundef null) #3
  br label %16

16:                                               ; preds = %15, %13, %5
  %.0 = phi i32 [ %6, %5 ], [ %14, %13 ], [ -1, %15 ]
  ret i32 %.0
}